(dp0
Vengine
p1
S'pdflatex'
p2
sVpackages
p3
c__builtin__
set
p4
((lp5
Vcolor
p6
aVbabel
p7
aVsoul
p8
aVfontenc
p9
aVifthen
p10
aVgraphicx
p11
atp12
Rp13
sVfiles_with_guttermarks
p14
g4
((lp15
S'uppsatsen.tex'
p16
aV/Users/ac7391/Box Sync/Exjobb/2016 VT/C-Uppsats/./uppsatsen.tex
p17
atp18
Rp19
sVsynctex
p20
I01
s.